; ModuleID = '33/3366.c'
source_filename = "33/3366.c"
target datalayout = "e-m:e-p270:32:32-p271:32:32-p272:64:64-i64:64-f80:128-n8:16:32:64-S128"
target triple = "x86_64-pc-linux-gnu"

@.str = private unnamed_addr constant [3 x i8] c"%d\00", align 1
@.str.1 = private unnamed_addr constant [3 x i8] c"%s\00", align 1
@.str.2 = private unnamed_addr constant [2 x i8] c"T\00", align 1
@.str.3 = private unnamed_addr constant [2 x i8] c"A\00", align 1
@.str.4 = private unnamed_addr constant [2 x i8] c"G\00", align 1
@.str.5 = private unnamed_addr constant [2 x i8] c"C\00", align 1
@.str.6 = private unnamed_addr constant [2 x i8] c"\0A\00", align 1

; Function Attrs: noinline nounwind uwtable
define dso_local i32 @main() #0 {
  %1 = alloca i32, align 4
  %2 = alloca i32, align 4
  %3 = alloca i32, align 4
  %4 = alloca i32, align 4
  %5 = alloca [1000 x i32], align 16
  %6 = alloca [1000 x [1000 x i8]], align 16
  store i32 0, i32* %1, align 4
  %7 = call i32 (i8*, ...) @__isoc99_scanf(i8* getelementptr inbounds ([3 x i8], [3 x i8]* @.str, i64 0, i64 0), i32* %2)
  store i32 0, i32* %3, align 4
  br label %8

8:                                                ; preds = %27, %0
  %9 = load i32, i32* %3, align 4
  %10 = load i32, i32* %2, align 4
  %11 = icmp slt i32 %9, %10
  br i1 %11, label %12, label %30

12:                                               ; preds = %8
  %13 = load i32, i32* %3, align 4
  %14 = sext i32 %13 to i64
  %15 = getelementptr inbounds [1000 x [1000 x i8]], [1000 x [1000 x i8]]* %6, i64 0, i64 %14
  %16 = getelementptr inbounds [1000 x i8], [1000 x i8]* %15, i64 0, i64 0
  %17 = call i32 (i8*, ...) @__isoc99_scanf(i8* getelementptr inbounds ([3 x i8], [3 x i8]* @.str.1, i64 0, i64 0), i8* %16)
  %18 = load i32, i32* %3, align 4
  %19 = sext i32 %18 to i64
  %20 = getelementptr inbounds [1000 x [1000 x i8]], [1000 x [1000 x i8]]* %6, i64 0, i64 %19
  %21 = getelementptr inbounds [1000 x i8], [1000 x i8]* %20, i64 0, i64 0
  %22 = call i64 @strlen(i8* %21) #3
  %23 = trunc i64 %22 to i32
  %24 = load i32, i32* %3, align 4
  %25 = sext i32 %24 to i64
  %26 = getelementptr inbounds [1000 x i32], [1000 x i32]* %5, i64 0, i64 %25
  store i32 %23, i32* %26, align 4
  br label %27

27:                                               ; preds = %12
  %28 = load i32, i32* %3, align 4
  %29 = add nsw i32 %28, 1
  store i32 %29, i32* %3, align 4
  br label %8

30:                                               ; preds = %8
  store i32 0, i32* %3, align 4
  br label %31

31:                                               ; preds = %110, %30
  %32 = load i32, i32* %3, align 4
  %33 = load i32, i32* %2, align 4
  %34 = icmp slt i32 %32, %33
  br i1 %34, label %35, label %113

35:                                               ; preds = %31
  store i32 0, i32* %4, align 4
  br label %36

36:                                               ; preds = %106, %35
  %37 = load i32, i32* %4, align 4
  %38 = sext i32 %37 to i64
  %39 = load i32, i32* %3, align 4
  %40 = sext i32 %39 to i64
  %41 = getelementptr inbounds [1000 x [1000 x i8]], [1000 x [1000 x i8]]* %6, i64 0, i64 %40
  %42 = getelementptr inbounds [1000 x i8], [1000 x i8]* %41, i64 0, i64 0
  %43 = call i64 @strlen(i8* %42) #3
  %44 = icmp ult i64 %38, %43
  br i1 %44, label %45, label %109

45:                                               ; preds = %36
  %46 = load i32, i32* %3, align 4
  %47 = sext i32 %46 to i64
  %48 = getelementptr inbounds [1000 x [1000 x i8]], [1000 x [1000 x i8]]* %6, i64 0, i64 %47
  %49 = load i32, i32* %4, align 4
  %50 = sext i32 %49 to i64
  %51 = getelementptr inbounds [1000 x i8], [1000 x i8]* %48, i64 0, i64 %50
  %52 = load i8, i8* %51, align 1
  %53 = sext i8 %52 to i32
  %54 = icmp eq i32 %53, 65
  br i1 %54, label %55, label %57

55:                                               ; preds = %45
  %56 = call i32 (i8*, ...) @printf(i8* getelementptr inbounds ([2 x i8], [2 x i8]* @.str.2, i64 0, i64 0))
  br label %57

57:                                               ; preds = %55, %45
  %58 = load i32, i32* %3, align 4
  %59 = sext i32 %58 to i64
  %60 = getelementptr inbounds [1000 x [1000 x i8]], [1000 x [1000 x i8]]* %6, i64 0, i64 %59
  %61 = load i32, i32* %4, align 4
  %62 = sext i32 %61 to i64
  %63 = getelementptr inbounds [1000 x i8], [1000 x i8]* %60, i64 0, i64 %62
  %64 = load i8, i8* %63, align 1
  %65 = sext i8 %64 to i32
  %66 = icmp eq i32 %65, 84
  br i1 %66, label %67, label %69

67:                                               ; preds = %57
  %68 = call i32 (i8*, ...) @printf(i8* getelementptr inbounds ([2 x i8], [2 x i8]* @.str.3, i64 0, i64 0))
  br label %69

69:                                               ; preds = %67, %57
  %70 = load i32, i32* %3, align 4
  %71 = sext i32 %70 to i64
  %72 = getelementptr inbounds [1000 x [1000 x i8]], [1000 x [1000 x i8]]* %6, i64 0, i64 %71
  %73 = load i32, i32* %4, align 4
  %74 = sext i32 %73 to i64
  %75 = getelementptr inbounds [1000 x i8], [1000 x i8]* %72, i64 0, i64 %74
  %76 = load i8, i8* %75, align 1
  %77 = sext i8 %76 to i32
  %78 = icmp eq i32 %77, 67
  br i1 %78, label %79, label %81

79:                                               ; preds = %69
  %80 = call i32 (i8*, ...) @printf(i8* getelementptr inbounds ([2 x i8], [2 x i8]* @.str.4, i64 0, i64 0))
  br label %81

81:                                               ; preds = %79, %69
  %82 = load i32, i32* %3, align 4
  %83 = sext i32 %82 to i64
  %84 = getelementptr inbounds [1000 x [1000 x i8]], [1000 x [1000 x i8]]* %6, i64 0, i64 %83
  %85 = load i32, i32* %4, align 4
  %86 = sext i32 %85 to i64
  %87 = getelementptr inbounds [1000 x i8], [1000 x i8]* %84, i64 0, i64 %86
  %88 = load i8, i8* %87, align 1
  %89 = sext i8 %88 to i32
  %90 = icmp eq i32 %89, 71
  br i1 %90, label %91, label %93

91:                                               ; preds = %81
  %92 = call i32 (i8*, ...) @printf(i8* getelementptr inbounds ([2 x i8], [2 x i8]* @.str.5, i64 0, i64 0))
  br label %93

93:                                               ; preds = %91, %81
  %94 = load i32, i32* %4, align 4
  %95 = sext i32 %94 to i64
  %96 = load i32, i32* %3, align 4
  %97 = sext i32 %96 to i64
  %98 = getelementptr inbounds [1000 x [1000 x i8]], [1000 x [1000 x i8]]* %6, i64 0, i64 %97
  %99 = getelementptr inbounds [1000 x i8], [1000 x i8]* %98, i64 0, i64 0
  %100 = call i64 @strlen(i8* %99) #3
  %101 = sub i64 %100, 1
  %102 = icmp eq i64 %95, %101
  br i1 %102, label %103, label %105

103:                                              ; preds = %93
  %104 = call i32 (i8*, ...) @printf(i8* getelementptr inbounds ([2 x i8], [2 x i8]* @.str.6, i64 0, i64 0))
  br label %105

105:                                              ; preds = %103, %93
  br label %106

106:                                              ; preds = %105
  %107 = load i32, i32* %4, align 4
  %108 = add nsw i32 %107, 1
  store i32 %108, i32* %4, align 4
  br label %36

109:                                              ; preds = %36
  br label %110

110:                                              ; preds = %109
  %111 = load i32, i32* %3, align 4
  %112 = add nsw i32 %111, 1
  store i32 %112, i32* %3, align 4
  br label %31

113:                                              ; preds = %31
  ret i32 0
}

declare dso_local i32 @__isoc99_scanf(i8*, ...) #1

; Function Attrs: nounwind readonly
declare dso_local i64 @strlen(i8*) #2

declare dso_local i32 @printf(i8*, ...) #1


!llvm.module.flags = !{!0}
!llvm.ident = !{!1}

!0 = !{i32 1, !"wchar_size", i32 4}
!1 = !{!"clang version 10.0.0-4ubuntu1 "}
