; ModuleID = 'source-C-CXX/32/3366.c'
source_filename = "source-C-CXX/32/3366.c"
target datalayout = "e-m:e-p270:32:32-p271:32:32-p272:64:64-i64:64-f80:128-n8:16:32:64-S128"
target triple = "x86_64-pc-linux-gnu"

@.str = private unnamed_addr constant [3 x i8] c"%d\00", align 1
@.str.1 = private unnamed_addr constant [3 x i8] c"%s\00", align 1

; Function Attrs: nofree nounwind sspstrong uwtable
define dso_local i32 @main() local_unnamed_addr #0 {
  %1 = alloca i32, align 4
  %2 = alloca [1000 x [1000 x i8]], align 16
  %3 = bitcast i32* %1 to i8*
  call void @llvm.lifetime.start.p0i8(i64 4, i8* nonnull %3) #5
  %4 = getelementptr inbounds [1000 x [1000 x i8]], [1000 x [1000 x i8]]* %2, i64 0, i64 0, i64 0
  call void @llvm.lifetime.start.p0i8(i64 1000000, i8* nonnull %4) #5
  %5 = call i32 (i8*, ...) @__isoc99_scanf(i8* getelementptr inbounds ([3 x i8], [3 x i8]* @.str, i64 0, i64 0), i32* nonnull %1)
  %6 = load i32, i32* %1, align 4, !tbaa !5
  %7 = icmp sgt i32 %6, 0
  br i1 %7, label %10, label %66

8:                                                ; preds = %10
  %9 = icmp sgt i32 %15, 0
  br i1 %9, label %18, label %66

10:                                               ; preds = %0, %10
  %11 = phi i64 [ %14, %10 ], [ 0, %0 ]
  %12 = getelementptr inbounds [1000 x [1000 x i8]], [1000 x [1000 x i8]]* %2, i64 0, i64 %11, i64 0
  %13 = call i32 (i8*, ...) @__isoc99_scanf(i8* getelementptr inbounds ([3 x i8], [3 x i8]* @.str.1, i64 0, i64 0), i8* nonnull %12)
  %14 = add nuw nsw i64 %11, 1
  %15 = load i32, i32* %1, align 4, !tbaa !5
  %16 = sext i32 %15 to i64
  %17 = icmp slt i64 %14, %16
  br i1 %17, label %10, label %8, !llvm.loop !9

18:                                               ; preds = %8, %61
  %19 = phi i32 [ %62, %61 ], [ %15, %8 ]
  %20 = phi i64 [ %63, %61 ], [ 0, %8 ]
  %21 = getelementptr inbounds [1000 x [1000 x i8]], [1000 x [1000 x i8]]* %2, i64 0, i64 %20, i64 0
  %22 = call i64 @strlen(i8* noundef nonnull %21) #6
  %23 = icmp eq i64 %22, 0
  br i1 %23, label %61, label %24

24:                                               ; preds = %18, %55
  %25 = phi i64 [ %56, %55 ], [ 0, %18 ]
  %26 = getelementptr inbounds [1000 x [1000 x i8]], [1000 x [1000 x i8]]* %2, i64 0, i64 %20, i64 %25
  %27 = load i8, i8* %26, align 1, !tbaa !11
  %28 = icmp eq i8 %27, 65
  br i1 %28, label %29, label %32

29:                                               ; preds = %24
  %30 = call i32 @putchar(i32 84)
  %31 = load i8, i8* %26, align 1, !tbaa !11
  br label %32

32:                                               ; preds = %29, %24
  %33 = phi i8 [ %31, %29 ], [ %27, %24 ]
  %34 = icmp eq i8 %33, 84
  br i1 %34, label %35, label %38

35:                                               ; preds = %32
  %36 = call i32 @putchar(i32 65)
  %37 = load i8, i8* %26, align 1, !tbaa !11
  br label %38

38:                                               ; preds = %35, %32
  %39 = phi i8 [ %37, %35 ], [ %33, %32 ]
  %40 = icmp eq i8 %39, 67
  br i1 %40, label %41, label %44

41:                                               ; preds = %38
  %42 = call i32 @putchar(i32 71)
  %43 = load i8, i8* %26, align 1, !tbaa !11
  br label %44

44:                                               ; preds = %41, %38
  %45 = phi i8 [ %43, %41 ], [ %39, %38 ]
  %46 = icmp eq i8 %45, 71
  br i1 %46, label %47, label %49

47:                                               ; preds = %44
  %48 = call i32 @putchar(i32 67)
  br label %49

49:                                               ; preds = %47, %44
  %50 = call i64 @strlen(i8* noundef nonnull %21) #6
  %51 = add i64 %50, -1
  %52 = icmp eq i64 %51, %25
  br i1 %52, label %53, label %55

53:                                               ; preds = %49
  %54 = call i32 @putchar(i32 10)
  br label %55

55:                                               ; preds = %49, %53
  %56 = add nuw i64 %25, 1
  %57 = call i64 @strlen(i8* noundef nonnull %21) #6
  %58 = icmp ugt i64 %57, %56
  br i1 %58, label %24, label %59, !llvm.loop !12

59:                                               ; preds = %55
  %60 = load i32, i32* %1, align 4, !tbaa !5
  br label %61

61:                                               ; preds = %59, %18
  %62 = phi i32 [ %60, %59 ], [ %19, %18 ]
  %63 = add nuw nsw i64 %20, 1
  %64 = sext i32 %62 to i64
  %65 = icmp slt i64 %63, %64
  br i1 %65, label %18, label %66, !llvm.loop !13

66:                                               ; preds = %61, %0, %8
  call void @llvm.lifetime.end.p0i8(i64 1000000, i8* nonnull %4) #5
  call void @llvm.lifetime.end.p0i8(i64 4, i8* nonnull %3) #5
  ret i32 0
}

; Function Attrs: argmemonly mustprogress nofree nosync nounwind willreturn
declare void @llvm.lifetime.start.p0i8(i64 immarg, i8* nocapture) #1

; Function Attrs: nofree nounwind
declare noundef i32 @__isoc99_scanf(i8* nocapture noundef readonly, ...) local_unnamed_addr #2

; Function Attrs: argmemonly mustprogress nofree nounwind readonly willreturn
declare i64 @strlen(i8* nocapture) local_unnamed_addr #3

; Function Attrs: argmemonly mustprogress nofree nosync nounwind willreturn
declare void @llvm.lifetime.end.p0i8(i64 immarg, i8* nocapture) #1

; Function Attrs: nofree nounwind
declare noundef i32 @putchar(i32 noundef) local_unnamed_addr #4


!llvm.module.flags = !{!0, !1, !2, !3}
!llvm.ident = !{!4}

!0 = !{i32 1, !"wchar_size", i32 4}
!1 = !{i32 7, !"PIC Level", i32 2}
!2 = !{i32 7, !"PIE Level", i32 2}
!3 = !{i32 7, !"uwtable", i32 1}
!4 = !{!"clang version 13.0.0"}
!5 = !{!6, !6, i64 0}
!6 = !{!"int", !7, i64 0}
!7 = !{!"omnipotent char", !8, i64 0}
!8 = !{!"Simple C/C++ TBAA"}
!9 = distinct !{!9, !10}
!10 = !{!"llvm.loop.mustprogress"}
!11 = !{!7, !7, i64 0}
!12 = distinct !{!12, !10}
!13 = distinct !{!13, !10}
